(lp0
(dp1
Vrois
p2
(lp3
(dp4
VROI
p5
(lp6
I29
aI57
aI211
aI152
aI182
aI95
asVreferencePoints
p7
(lp8
I120
aF104.5
asVpointsToTrack
p9
I1
sasVname
p10
VDefault
p11
sa(dp12
Vrois
p13
(lp14
(dp15
VROI
p16
(lp17
I111
aI204
aI257
aI240
aI146
aI36
asVreferencePoints
p18
(lp19
I184
aI222
asVpointsToTrack
p20
I1
sasVname
p21
VDefault
p22
sa.